target datalayout = "e-m:e-p270:32:32-p271:32:32-p272:64:64-i64:64-i128:128-f80:128-n8:16:32:64-S128"
target triple = "x86_64-pc-linux-gnu"

%struct.H5S_hyper_span_info_t = type { i32, ptr, ptr, [2 x %struct.H5S_hyper_op_info_t], ptr, ptr, [0 x i64] }
%struct.H5S_hyper_op_info_t = type { i64, %union.anon.1 }
%union.anon.1 = type { ptr }
%struct.H5S_hyper_span_t = type { i64, i64, ptr, ptr }

@H5S_init_g = external global i8, align 1
@H5_libterm_g = external global i8, align 1

; Function Attrs: nounwind willreturn memory(read) uwtable
define internal zeroext i1 @H5S__hyper_cmp_spans(ptr noundef %0, ptr noundef %1) #6 {
  %3 = alloca i1, align 1
  %4 = alloca ptr, align 8
  %5 = alloca ptr, align 8
  %6 = alloca i8, align 1
  %7 = alloca ptr, align 8
  %8 = alloca ptr, align 8
  %9 = alloca i32, align 4
  store ptr %0, ptr %4, align 8, !tbaa !107
  store ptr %1, ptr %5, align 8, !tbaa !107
  call void @llvm.lifetime.start.p0(i64 1, ptr %6) #7
  store i8 1, ptr %6, align 1, !tbaa !8
  %10 = load i8, ptr @H5S_init_g, align 1, !tbaa !8, !range !12, !noundef !13
  %11 = trunc i8 %10 to i1
  br i1 %11, label %16, label %12

12:                                               ; preds = %2
  %13 = load i8, ptr @H5_libterm_g, align 1, !tbaa !8, !range !12, !noundef !13
  %14 = trunc i8 %13 to i1
  %15 = xor i1 %14, true
  br label %16

16:                                               ; preds = %12, %2
  %17 = phi i1 [ true, %2 ], [ %15, %12 ]
  %18 = xor i1 %17, true
  %19 = xor i1 %18, true
  %20 = zext i1 %19 to i32
  %21 = sext i32 %20 to i64
  %22 = call i64 @llvm.expect.i64(i64 %21, i64 1)
  %23 = icmp ne i64 %22, 0
  br i1 %23, label %24, label %160

24:                                               ; preds = %16
  %25 = load ptr, ptr %4, align 8, !tbaa !107
  %26 = load ptr, ptr %5, align 8, !tbaa !107
  %27 = icmp ne ptr %25, %26
  br i1 %27, label %28, label %158

28:                                               ; preds = %24
  %29 = load ptr, ptr %4, align 8, !tbaa !107
  %30 = icmp eq ptr %29, null
  br i1 %30, label %34, label %31

31:                                               ; preds = %28
  %32 = load ptr, ptr %5, align 8, !tbaa !107
  %33 = icmp eq ptr %32, null
  br i1 %33, label %34, label %38

34:                                               ; preds = %31, %28
  br label %35

35:                                               ; preds = %34
  store i8 0, ptr %6, align 1, !tbaa !8
  br label %159

36:                                               ; No predecessors!
  br label %37

37:                                               ; preds = %36
  br label %157

38:                                               ; preds = %31
  %39 = load ptr, ptr %4, align 8, !tbaa !107
  %40 = getelementptr inbounds nuw %struct.H5S_hyper_span_info_t, ptr %39, i32 0, i32 1
  %41 = load ptr, ptr %40, align 8, !tbaa !33
  %42 = getelementptr inbounds i64, ptr %41, i64 0
  %43 = load i64, ptr %42, align 8, !tbaa !15
  %44 = load ptr, ptr %5, align 8, !tbaa !107
  %45 = getelementptr inbounds nuw %struct.H5S_hyper_span_info_t, ptr %44, i32 0, i32 1
  %46 = load ptr, ptr %45, align 8, !tbaa !33
  %47 = getelementptr inbounds i64, ptr %46, i64 0
  %48 = load i64, ptr %47, align 8, !tbaa !15
  %49 = icmp ne i64 %43, %48
  br i1 %49, label %50, label %54

50:                                               ; preds = %38
  br label %51

51:                                               ; preds = %50
  store i8 0, ptr %6, align 1, !tbaa !8
  br label %159

52:                                               ; No predecessors!
  br label %53

53:                                               ; preds = %52
  br label %156

54:                                               ; preds = %38
  %55 = load ptr, ptr %4, align 8, !tbaa !107
  %56 = getelementptr inbounds nuw %struct.H5S_hyper_span_info_t, ptr %55, i32 0, i32 2
  %57 = load ptr, ptr %56, align 8, !tbaa !33
  %58 = getelementptr inbounds i64, ptr %57, i64 0
  %59 = load i64, ptr %58, align 8, !tbaa !15
  %60 = load ptr, ptr %5, align 8, !tbaa !107
  %61 = getelementptr inbounds nuw %struct.H5S_hyper_span_info_t, ptr %60, i32 0, i32 2
  %62 = load ptr, ptr %61, align 8, !tbaa !33
  %63 = getelementptr inbounds i64, ptr %62, i64 0
  %64 = load i64, ptr %63, align 8, !tbaa !15
  %65 = icmp ne i64 %59, %64
  br i1 %65, label %66, label %70

66:                                               ; preds = %54
  br label %67

67:                                               ; preds = %66
  store i8 0, ptr %6, align 1, !tbaa !8
  br label %159

68:                                               ; No predecessors!
  br label %69

69:                                               ; preds = %68
  br label %155

70:                                               ; preds = %54
  call void @llvm.lifetime.start.p0(i64 8, ptr %7) #7
  call void @llvm.lifetime.start.p0(i64 8, ptr %8) #7
  %71 = load ptr, ptr %4, align 8, !tbaa !107
  %72 = getelementptr inbounds nuw %struct.H5S_hyper_span_info_t, ptr %71, i32 0, i32 4
  %73 = load ptr, ptr %72, align 8, !tbaa !99
  store ptr %73, ptr %7, align 8, !tbaa !99
  %74 = load ptr, ptr %5, align 8, !tbaa !107
  %75 = getelementptr inbounds nuw %struct.H5S_hyper_span_info_t, ptr %74, i32 0, i32 4
  %76 = load ptr, ptr %75, align 8, !tbaa !99
  store ptr %76, ptr %8, align 8, !tbaa !99
  br label %77

77:                                               ; preds = %146, %70
  br label %78

78:                                               ; preds = %77
  %79 = load ptr, ptr %7, align 8, !tbaa !99
  %80 = icmp eq ptr %79, null
  br i1 %80, label %81, label %88

81:                                               ; preds = %78
  %82 = load ptr, ptr %8, align 8, !tbaa !99
  %83 = icmp eq ptr %82, null
  br i1 %83, label %84, label %88

84:                                               ; preds = %81
  br label %85

85:                                               ; preds = %84
  store i8 1, ptr %6, align 1, !tbaa !8
  store i32 4, ptr %9, align 4
  br label %153

86:                                               ; No predecessors!
  br label %87

87:                                               ; preds = %86
  br label %146

88:                                               ; preds = %81, %78
  %89 = load ptr, ptr %7, align 8, !tbaa !99
  %90 = icmp eq ptr %89, null
  br i1 %90, label %94, label %91

91:                                               ; preds = %88
  %92 = load ptr, ptr %8, align 8, !tbaa !99
  %93 = icmp eq ptr %92, null
  br i1 %93, label %94, label %98

94:                                               ; preds = %91, %88
  br label %95

95:                                               ; preds = %94
  store i8 0, ptr %6, align 1, !tbaa !8
  store i32 4, ptr %9, align 4
  br label %153

96:                                               ; No predecessors!
  br label %97

97:                                               ; preds = %96
  br label %145

98:                                               ; preds = %91
  %99 = load ptr, ptr %7, align 8, !tbaa !99
  %100 = getelementptr inbounds nuw %struct.H5S_hyper_span_t, ptr %99, i32 0, i32 0
  %101 = load i64, ptr %100, align 8, !tbaa !101
  %102 = load ptr, ptr %8, align 8, !tbaa !99
  %103 = getelementptr inbounds nuw %struct.H5S_hyper_span_t, ptr %102, i32 0, i32 0
  %104 = load i64, ptr %103, align 8, !tbaa !101
  %105 = icmp ne i64 %101, %104
  br i1 %105, label %114, label %106

106:                                              ; preds = %98
  %107 = load ptr, ptr %7, align 8, !tbaa !99
  %108 = getelementptr inbounds nuw %struct.H5S_hyper_span_t, ptr %107, i32 0, i32 1
  %109 = load i64, ptr %108, align 8, !tbaa !109
  %110 = load ptr, ptr %8, align 8, !tbaa !99
  %111 = getelementptr inbounds nuw %struct.H5S_hyper_span_t, ptr %110, i32 0, i32 1
  %112 = load i64, ptr %111, align 8, !tbaa !109
  %113 = icmp ne i64 %109, %112
  br i1 %113, label %114, label %118

114:                                              ; preds = %106, %98
  br label %115

115:                                              ; preds = %114
  store i8 0, ptr %6, align 1, !tbaa !8
  store i32 4, ptr %9, align 4
  br label %153

116:                                              ; No predecessors!
  br label %117

117:                                              ; preds = %116
  br label %144

118:                                              ; preds = %106
  %119 = load ptr, ptr %7, align 8, !tbaa !99
  %120 = getelementptr inbounds nuw %struct.H5S_hyper_span_t, ptr %119, i32 0, i32 2
  %121 = load ptr, ptr %120, align 8, !tbaa !103
  %122 = icmp ne ptr %121, null
  br i1 %122, label %128, label %123

123:                                              ; preds = %118
  %124 = load ptr, ptr %8, align 8, !tbaa !99
  %125 = getelementptr inbounds nuw %struct.H5S_hyper_span_t, ptr %124, i32 0, i32 2
  %126 = load ptr, ptr %125, align 8, !tbaa !103
  %127 = icmp ne ptr %126, null
  br i1 %127, label %128, label %142

128:                                              ; preds = %123, %118
  %129 = load ptr, ptr %7, align 8, !tbaa !99
  %130 = getelementptr inbounds nuw %struct.H5S_hyper_span_t, ptr %129, i32 0, i32 2
  %131 = load ptr, ptr %130, align 8, !tbaa !103
  %132 = load ptr, ptr %8, align 8, !tbaa !99
  %133 = getelementptr inbounds nuw %struct.H5S_hyper_span_t, ptr %132, i32 0, i32 2
  %134 = load ptr, ptr %133, align 8, !tbaa !103
  %135 = call zeroext i1 @H5S__hyper_cmp_spans(ptr noundef %131, ptr noundef %134) #8
  br i1 %135, label %140, label %136

136:                                              ; preds = %128
  br label %137

137:                                              ; preds = %136
  store i8 0, ptr %6, align 1, !tbaa !8
  store i32 4, ptr %9, align 4
  br label %153

138:                                              ; No predecessors!
  br label %139

139:                                              ; preds = %138
  br label %141

140:                                              ; preds = %128
  br label %141

141:                                              ; preds = %140, %139
  br label %143

142:                                              ; preds = %123
  br label %143

143:                                              ; preds = %142, %141
  br label %144

144:                                              ; preds = %143, %117
  br label %145

145:                                              ; preds = %144, %97
  br label %146

146:                                              ; preds = %145, %87
  %147 = load ptr, ptr %7, align 8, !tbaa !99
  %148 = getelementptr inbounds nuw %struct.H5S_hyper_span_t, ptr %147, i32 0, i32 3
  %149 = load ptr, ptr %148, align 8, !tbaa !108
  store ptr %149, ptr %7, align 8, !tbaa !99
  %150 = load ptr, ptr %8, align 8, !tbaa !99
  %151 = getelementptr inbounds nuw %struct.H5S_hyper_span_t, ptr %150, i32 0, i32 3
  %152 = load ptr, ptr %151, align 8, !tbaa !108
  store ptr %152, ptr %8, align 8, !tbaa !99
  br label %77

153:                                              ; preds = %137, %115, %95, %85
  call void @llvm.lifetime.end.p0(i64 8, ptr %8) #7
  call void @llvm.lifetime.end.p0(i64 8, ptr %7) #7
  %154 = load i32, ptr %9, align 4
  switch i32 %154, label %163 [
    i32 4, label %159
  ]

155:                                              ; preds = %69
  br label %156

156:                                              ; preds = %155, %53
  br label %157

157:                                              ; preds = %156, %37
  br label %158

158:                                              ; preds = %157, %24
  br label %159

159:                                              ; preds = %158, %153, %67, %51, %35
  br label %160

160:                                              ; preds = %159, %16
  %161 = load i8, ptr %6, align 1, !tbaa !8, !range !12, !noundef !13
  %162 = trunc i8 %161 to i1
  store i1 %162, ptr %3, align 1
  store i32 1, ptr %9, align 4
  br label %163

163:                                              ; preds = %160, %153
  call void @llvm.lifetime.end.p0(i64 1, ptr %6) #7
  %164 = load i1, ptr %3, align 1
  ret i1 %164
}