; Function Attrs: mustprogress nofree nosync nounwind willreturn memory(read, inaccessiblemem: none) uwtable
define internal fastcc zeroext i1 @H5S__hyper_cmp_spans(ptr noundef readonly captures(address) %0, ptr noundef readonly captures(address) %1) unnamed_addr #12 {
  %3 = load i8, ptr @H5S_init_g, align 1, !tbaa !3, !range !7, !noundef !8
  %4 = trunc nuw i8 %3 to i1
  %5 = load i8, ptr @H5_libterm_g, align 1, !range !7
  %6 = trunc nuw i8 %5 to i1
  %not. = xor i1 %4, true
  %.not42 = select i1 %not., i1 %6, i1 false
  %.not = icmp eq ptr %0, %1
  %or.cond43 = or i1 %.not, %.not42
  br i1 %or.cond43, label %.loopexit, label %7, !prof !38

7:                                                ; preds = %2
  %8 = icmp eq ptr %0, null
  %9 = icmp eq ptr %1, null
  %or.cond = or i1 %8, %9
  br i1 %or.cond, label %.loopexit, label %10

10:                                               ; preds = %7
  %11 = getelementptr inbounds nuw i8, ptr %0, i64 8
  %12 = load ptr, ptr %11, align 8, !tbaa !31
  %13 = load i64, ptr %12, align 8, !tbaa !11
  %14 = getelementptr inbounds nuw i8, ptr %1, i64 8
  %15 = load ptr, ptr %14, align 8, !tbaa !31
  %16 = load i64, ptr %15, align 8, !tbaa !11
  %.not36 = icmp eq i64 %13, %16
  br i1 %.not36, label %17, label %.loopexit

17:                                               ; preds = %10
  %18 = getelementptr inbounds nuw i8, ptr %0, i64 16
  %19 = load ptr, ptr %18, align 8, !tbaa !31
  %20 = load i64, ptr %19, align 8, !tbaa !11
  %21 = getelementptr inbounds nuw i8, ptr %1, i64 16
  %22 = load ptr, ptr %21, align 8, !tbaa !31
  %23 = load i64, ptr %22, align 8, !tbaa !11
  %.not37 = icmp eq i64 %20, %23
  br i1 %.not37, label %24, label %.loopexit

24:                                               ; preds = %17
  %25 = getelementptr inbounds nuw i8, ptr %0, i64 56
  %26 = getelementptr inbounds nuw i8, ptr %1, i64 56
  %.03152 = load ptr, ptr %26, align 8, !tbaa !88
  %.03253 = load ptr, ptr %25, align 8, !tbaa !88
  %27 = icmp eq ptr %.03253, null
  %28 = icmp eq ptr %.03152, null
  %or.cond4454 = select i1 %27, i1 true, i1 %28
  br i1 %or.cond4454, label %.loopexit.split.loop.exit, label %.lr.ph

.lr.ph:                                           ; preds = %24, %42
  %.03256 = phi ptr [ %.032, %42 ], [ %.03253, %24 ]
  %.03155 = phi ptr [ %.031, %42 ], [ %.03152, %24 ]
  %29 = load i64, ptr %.03256, align 8, !tbaa !90
  %30 = load i64, ptr %.03155, align 8, !tbaa !90
  %.not38 = icmp eq i64 %29, %30
  br i1 %.not38, label %31, label %.loopexit

31:                                               ; preds = %.lr.ph
  %32 = getelementptr inbounds nuw i8, ptr %.03256, i64 8
  %33 = load i64, ptr %32, align 8, !tbaa !97
  %34 = getelementptr inbounds nuw i8, ptr %.03155, i64 8
  %35 = load i64, ptr %34, align 8, !tbaa !97
  %.not39 = icmp eq i64 %33, %35
  br i1 %.not39, label %36, label %.loopexit

36:                                               ; preds = %31
  %37 = getelementptr inbounds nuw i8, ptr %.03256, i64 16
  %38 = load ptr, ptr %37, align 8, !tbaa !92
  %.not40 = icmp eq ptr %38, null
  %39 = getelementptr inbounds nuw i8, ptr %.03155, i64 16
  %40 = load ptr, ptr %39, align 8, !tbaa !92
  %.not41 = icmp eq ptr %40, null
  %or.cond62 = select i1 %.not40, i1 %.not41, i1 false
  br i1 %or.cond62, label %42, label %._crit_edge

._crit_edge:                                      ; preds = %36
  %41 = tail call fastcc zeroext i1 @H5S__hyper_cmp_spans(ptr noundef %38, ptr noundef %40) #15
  br i1 %41, label %42, label %.loopexit

42:                                               ; preds = %36, %._crit_edge
  %43 = getelementptr inbounds nuw i8, ptr %.03256, i64 24
  %44 = getelementptr inbounds nuw i8, ptr %.03155, i64 24
  %.031 = load ptr, ptr %44, align 8, !tbaa !88
  %.032 = load ptr, ptr %43, align 8, !tbaa !88
  %45 = icmp eq ptr %.032, null
  %46 = icmp eq ptr %.031, null
  %or.cond44 = select i1 %45, i1 true, i1 %46
  br i1 %or.cond44, label %.loopexit.split.loop.exit, label %.lr.ph

.loopexit.split.loop.exit:                        ; preds = %42, %24
  %.lcssa51 = phi i1 [ %28, %24 ], [ %46, %42 ]
  %.lcssa = phi i1 [ %27, %24 ], [ %45, %42 ]
  %or.cond3.le = select i1 %.lcssa, i1 %.lcssa51, i1 false
  br label %.loopexit

.loopexit:                                        ; preds = %.lr.ph, %31, %._crit_edge, %.loopexit.split.loop.exit, %2, %7, %10, %17
  %.033 = phi i1 [ true, %2 ], [ false, %7 ], [ false, %10 ], [ false, %17 ], [ %or.cond3.le, %.loopexit.split.loop.exit ], [ false, %._crit_edge ], [ false, %31 ], [ false, %.lr.ph ]
  ret i1 %.033
}